target datalayout = "e-m:e-p270:32:32-p271:32:32-p272:64:64-i64:64-i128:128-f80:128-n8:16:32:64-S128"
target triple = "x86_64-pc-linux-gnu"

%struct.darktable_t = type { %struct.dt_codepath_t, i32, i32, ptr, ptr, ptr, ptr, ptr, ptr, ptr, ptr, ptr, ptr, ptr, ptr, ptr, ptr, ptr, ptr, ptr, ptr, ptr, ptr, ptr, ptr, ptr, ptr, ptr, ptr, ptr, [64 x %struct.dt_pthread_mutex_t], %struct.dt_pthread_mutex_t, %struct.dt_pthread_mutex_t, %struct.dt_pthread_mutex_t, %struct.dt_pthread_mutex_t, %struct.dt_pthread_mutex_t, ptr, ptr, ptr, ptr, ptr, ptr, ptr, ptr, ptr, ptr, ptr, ptr, ptr, %struct.dt_lua_state_t, ptr, double, ptr, i32, [47 x i32], i32, i32, ptr, ptr, %struct.dt_sys_resources_t, %struct.dt_backthumb_t, %struct.dt_gimp_t }
%struct.dt_codepath_t = type { i8, [3 x i8] }
%struct.dt_pthread_mutex_t = type { %union.pthread_mutex_t }
%union.pthread_mutex_t = type { %struct.__pthread_mutex_s }
%struct.__pthread_mutex_s = type { i32, i32, i32, i32, i32, i16, i16, %struct.__pthread_internal_list }
%struct.__pthread_internal_list = type { ptr, ptr }
%struct.dt_lua_state_t = type { i32 }
%struct.dt_sys_resources_t = type { i64, i64, ptr, ptr, i32 }
%struct.dt_backthumb_t = type { double, double, i32, i32, i32, i32 }
%struct.dt_gimp_t = type { i32, ptr, ptr, i32, i32 }
%struct.dt_view_manager_t = type { ptr, ptr, ptr, %struct.dt_history_copy_item_t, %struct.anon, %struct.dt_act_on_cache_t, %struct.dt_act_on_cache_t, %struct.anon.0, %struct.anon.1, ptr, ptr, ptr, ptr, ptr, %struct.anon.2 }
%struct.dt_history_copy_item_t = type { ptr, ptr, i32, i32, i32 }
%struct.anon = type { ptr, ptr, ptr, i32, i32 }
%struct.dt_act_on_cache_t = type { ptr, i32, i32, i32, i32, ptr, i32, i32 }
%struct.anon.0 = type { ptr, ptr, ptr, ptr, ptr, ptr }
%struct.anon.1 = type { i32, i32, i32 }
%struct.anon.2 = type { %struct.anon.3, %struct.anon.4, %struct.anon.5, %struct.anon.6, %struct.anon.7, %struct.anon.8, %struct.anon.9, %struct.anon.10, %struct.anon.11, %struct.anon.12, %struct.anon.13, %struct.anon.14 }
%struct.anon.3 = type { ptr, ptr }
%struct.anon.4 = type { ptr, ptr }
%struct.anon.5 = type { ptr, ptr, ptr, ptr }
%struct.anon.6 = type { ptr, ptr }
%struct.anon.7 = type { ptr }
%struct.anon.8 = type { ptr, ptr, ptr, ptr, ptr }
%struct.anon.9 = type { ptr }
%struct.anon.10 = type { ptr, ptr }
%struct.anon.11 = type { ptr, ptr, ptr, ptr, ptr, ptr, ptr, ptr, ptr, ptr, ptr, ptr }
%struct.anon.12 = type { ptr, ptr, ptr, ptr }
%struct.anon.13 = type { ptr }
%struct.anon.14 = type { ptr, ptr }

@darktable = external global %struct.darktable_t, align 8

; Function Attrs: nounwind uwtable
define ptr @dt_act_on_get_images(i32 noundef %0, i32 noundef %1, i32 noundef %2) #0 {
  %4 = alloca i32, align 4
  %5 = alloca i32, align 4
  %6 = alloca i32, align 4
  %7 = alloca ptr, align 8
  store i32 %0, ptr %4, align 4, !tbaa !6
  store i32 %1, ptr %5, align 4, !tbaa !6
  store i32 %2, ptr %6, align 4, !tbaa !6
  %8 = load i32, ptr %4, align 4, !tbaa !6
  %9 = load i32, ptr %5, align 4, !tbaa !6
  %10 = load i32, ptr %6, align 4, !tbaa !6
  %11 = call i32 @_cache_update(i32 noundef %8, i32 noundef %9, i32 noundef %10)
  call void @llvm.lifetime.start.p0(i64 8, ptr %7) #6
  store ptr null, ptr %7, align 8, !tbaa !54
  %12 = load i32, ptr %4, align 4, !tbaa !6
  %13 = icmp ne i32 %12, 0
  br i1 %13, label %14, label %26

14:                                               ; preds = %3
  %15 = load ptr, ptr getelementptr inbounds nuw (%struct.darktable_t, ptr @darktable, i32 0, i32 11), align 8, !tbaa !10
  %16 = getelementptr inbounds nuw %struct.dt_view_manager_t, ptr %15, i32 0, i32 6
  %17 = getelementptr inbounds nuw %struct.dt_act_on_cache_t, ptr %16, i32 0, i32 2
  %18 = load i32, ptr %17, align 4, !tbaa !124
  %19 = icmp ne i32 %18, 0
  br i1 %19, label %20, label %26

20:                                               ; preds = %14
  %21 = load ptr, ptr getelementptr inbounds nuw (%struct.darktable_t, ptr @darktable, i32 0, i32 11), align 8, !tbaa !10
  %22 = getelementptr inbounds nuw %struct.dt_view_manager_t, ptr %21, i32 0, i32 6
  %23 = getelementptr inbounds nuw %struct.dt_act_on_cache_t, ptr %22, i32 0, i32 0
  %24 = load ptr, ptr %23, align 8, !tbaa !125
  %25 = call ptr @g_list_copy(ptr noundef %24)
  store ptr %25, ptr %7, align 8, !tbaa !54
  br label %42

26:                                               ; preds = %14, %3
  %27 = load i32, ptr %4, align 4, !tbaa !6
  %28 = icmp ne i32 %27, 0
  br i1 %28, label %41, label %29

29:                                               ; preds = %26
  %30 = load ptr, ptr getelementptr inbounds nuw (%struct.darktable_t, ptr @darktable, i32 0, i32 11), align 8, !tbaa !10
  %31 = getelementptr inbounds nuw %struct.dt_view_manager_t, ptr %30, i32 0, i32 5
  %32 = getelementptr inbounds nuw %struct.dt_act_on_cache_t, ptr %31, i32 0, i32 2
  %33 = load i32, ptr %32, align 4, !tbaa !126
  %34 = icmp ne i32 %33, 0
  br i1 %34, label %35, label %41

35:                                               ; preds = %29
  %36 = load ptr, ptr getelementptr inbounds nuw (%struct.darktable_t, ptr @darktable, i32 0, i32 11), align 8, !tbaa !10
  %37 = getelementptr inbounds nuw %struct.dt_view_manager_t, ptr %36, i32 0, i32 5
  %38 = getelementptr inbounds nuw %struct.dt_act_on_cache_t, ptr %37, i32 0, i32 0
  %39 = load ptr, ptr %38, align 8, !tbaa !127
  %40 = call ptr @g_list_copy(ptr noundef %39)
  store ptr %40, ptr %7, align 8, !tbaa !54
  br label %41

41:                                               ; preds = %35, %29, %26
  br label %42

42:                                               ; preds = %41, %20
  %43 = load ptr, ptr %7, align 8, !tbaa !54
  call void @llvm.lifetime.end.p0(i64 8, ptr %7) #6
  ret ptr %43
}