; Function Attrs: nounwind uwtable
define ptr @dt_act_on_get_images(i32 noundef %0, i32 noundef %1, i32 noundef %2) local_unnamed_addr #0 {
  %4 = tail call i32 @_cache_update(i32 noundef %0, i32 noundef %1, i32 noundef %2)
  %.not = icmp eq i32 %0, 0
  %5 = load ptr, ptr getelementptr inbounds nuw (i8, ptr @darktable, i64 80), align 8, !tbaa !74
  br i1 %.not, label %.critedge, label %6

6:                                                ; preds = %3
  %7 = getelementptr inbounds nuw i8, ptr %5, i64 140
  %8 = load i32, ptr %7, align 4, !tbaa !116
  %.not5 = icmp eq i32 %8, 0
  br i1 %.not5, label %14, label %.sink.split

.critedge:                                        ; preds = %3
  %9 = getelementptr inbounds nuw i8, ptr %5, i64 100
  %10 = load i32, ptr %9, align 4, !tbaa !117
  %.not6 = icmp eq i32 %10, 0
  br i1 %.not6, label %14, label %.sink.split

.sink.split:                                      ; preds = %.critedge, %6
  %.sink = phi i64 [ 128, %6 ], [ 88, %.critedge ]
  %11 = getelementptr inbounds nuw i8, ptr %5, i64 %.sink
  %12 = load ptr, ptr %11, align 8, !tbaa !14
  %13 = tail call ptr @g_list_copy(ptr noundef %12) #7
  br label %14

14:                                               ; preds = %.sink.split, %6, %.critedge
  %.0 = phi ptr [ null, %.critedge ], [ null, %6 ], [ %13, %.sink.split ]
  ret ptr %.0
}